target datalayout = "e-m:e-p270:32:32-p271:32:32-p272:64:64-i64:64-i128:128-f80:128-n8:16:32:64-S128"
target triple = "x86_64-pc-linux-gnu"

%struct.GetBitContext = type { ptr, ptr, i32, i32, i32 }
%struct.H266RawPH = type { %struct.H266RawNALUnitHeader, %struct.H266RawPictureHeader }
%struct.H266RawNALUnitHeader = type { i8, i8, i8, i8 }
%struct.H266RawPictureHeader = type { i8, i8, i8, i8, i8, i8, i16, i8, [16 x i8], i8, i8, i8, i8, [8 x i8], i8, i8, i8, i8, i8, i8, i8, i8, i8, i8, i8, i8, i8, i8, [3 x i16], i8, [3 x i16], i8, %struct.H266RefPicLists, i8, i8, i8, i8, i8, i8, i8, i8, i8, i8, i8, i8, i8, i8, i8, i8, i8, i8, i8, i8, i8, i8, i8, i8, i8, %struct.H266RawPredWeightTable, i8, i8, i8, i8, i8, i8, i8, i8, i8, i8, i8, i8, i8, [256 x i8] }
%struct.H266RefPicLists = type { [2 x i8], [2 x i8], [2 x %struct.H266RefPicListStruct], [2 x [29 x i16]], [2 x [29 x i8]], [2 x [29 x i16]] }
%struct.H266RefPicListStruct = type { i8, i8, [29 x i8], [29 x i8], [29 x i8], [29 x i8], [29 x i8], [29 x i8] }
%struct.H266RawPredWeightTable = type { i8, i8, i8, [15 x i8], [15 x i8], [15 x i8], [15 x i8], [15 x [2 x i8]], [15 x [2 x i16]], i8, [15 x i8], [15 x i8], [15 x i8], [15 x i8], [15 x [2 x i8]], [15 x [2 x i16]], i8, i8 }

@.str.112 = private unnamed_addr constant [18 x i8] c"rbsp_stop_one_bit\00", align 1
@.str.113 = private unnamed_addr constant [24 x i8] c"rbsp_alignment_zero_bit\00", align 1
@.str.1046 = private unnamed_addr constant [15 x i8] c"Picture Header\00", align 1

; Function Attrs: inlinehint nounwind uwtable
define internal i32 @get_bits_count(ptr noundef %0) #6 {
  %2 = alloca ptr, align 8
  store ptr %0, ptr %2, align 8, !tbaa !196
  %3 = load ptr, ptr %2, align 8, !tbaa !196
  %4 = getelementptr inbounds nuw %struct.GetBitContext, ptr %3, i32 0, i32 2
  %5 = load i32, ptr %4, align 8, !tbaa !202
  ret i32 %5
}

; Function Attrs: nounwind uwtable
define internal i32 @cbs_h266_read_rbsp_trailing_bits(ptr noundef %0, ptr noundef %1) #0 {
  %3 = alloca i32, align 4
  %4 = alloca ptr, align 8
  %5 = alloca ptr, align 8
  %6 = alloca i32, align 4
  %7 = alloca i32, align 4
  %8 = alloca i32, align 4
  %9 = alloca i32, align 4
  %10 = alloca i32, align 4
  %11 = alloca i32, align 4
  store ptr %0, ptr %4, align 8, !tbaa !4
  store ptr %1, ptr %5, align 8, !tbaa !196
  call void @llvm.lifetime.start.p0(i64 4, ptr %6) #11
  br label %12

12:                                               ; preds = %2
  call void @llvm.lifetime.start.p0(i64 4, ptr %7) #11
  store i32 1, ptr %7, align 4, !tbaa !11
  br label %13

13:                                               ; preds = %12
  call void @llvm.lifetime.start.p0(i64 4, ptr %8) #11
  br label %14

14:                                               ; preds = %13
  %15 = load ptr, ptr %4, align 8, !tbaa !4
  %16 = load ptr, ptr %5, align 8, !tbaa !196
  %17 = call i32 @ff_cbs_read_unsigned(ptr noundef %15, ptr noundef %16, i32 noundef 1, ptr noundef @.str.112, ptr noundef null, ptr noundef %8, i32 noundef 1, i32 noundef 1)
  store i32 %17, ptr %6, align 4, !tbaa !11
  %18 = load i32, ptr %6, align 4, !tbaa !11
  %19 = icmp slt i32 %18, 0
  br i1 %19, label %20, label %22

20:                                               ; preds = %14
  %21 = load i32, ptr %6, align 4, !tbaa !11
  store i32 %21, ptr %3, align 4
  store i32 1, ptr %9, align 4
  br label %26

22:                                               ; preds = %14
  br label %23

23:                                               ; preds = %22
  br label %24

24:                                               ; preds = %23
  %25 = load i32, ptr %8, align 4, !tbaa !11
  store i32 %25, ptr %7, align 4, !tbaa !11
  store i32 0, ptr %9, align 4
  br label %26

26:                                               ; preds = %24, %20
  call void @llvm.lifetime.end.p0(i64 4, ptr %8) #11
  %27 = load i32, ptr %9, align 4
  switch i32 %27, label %31 [
    i32 0, label %28
  ]

28:                                               ; preds = %26
  br label %29

29:                                               ; preds = %28
  br label %30

30:                                               ; preds = %29
  store i32 0, ptr %9, align 4
  br label %31

31:                                               ; preds = %30, %26
  call void @llvm.lifetime.end.p0(i64 4, ptr %7) #11
  %32 = load i32, ptr %9, align 4
  switch i32 %32, label %67 [
    i32 0, label %33
  ]

33:                                               ; preds = %31
  br label %34

34:                                               ; preds = %33
  br label %35

35:                                               ; preds = %34
  br label %36

36:                                               ; preds = %65, %35
  %37 = load ptr, ptr %5, align 8, !tbaa !196
  %38 = call i32 @get_bits_count(ptr noundef %37)
  %39 = srem i32 %38, 8
  %40 = icmp ne i32 %39, 0
  br i1 %40, label %41, label %66

41:                                               ; preds = %36
  br label %42

42:                                               ; preds = %41
  call void @llvm.lifetime.start.p0(i64 4, ptr %10) #11
  store i32 0, ptr %10, align 4, !tbaa !11
  br label %43

43:                                               ; preds = %42
  call void @llvm.lifetime.start.p0(i64 4, ptr %11) #11
  br label %44

44:                                               ; preds = %43
  %45 = load ptr, ptr %4, align 8, !tbaa !4
  %46 = load ptr, ptr %5, align 8, !tbaa !196
  %47 = call i32 @ff_cbs_read_unsigned(ptr noundef %45, ptr noundef %46, i32 noundef 1, ptr noundef @.str.113, ptr noundef null, ptr noundef %11, i32 noundef 0, i32 noundef 0)
  store i32 %47, ptr %6, align 4, !tbaa !11
  %48 = load i32, ptr %6, align 4, !tbaa !11
  %49 = icmp slt i32 %48, 0
  br i1 %49, label %50, label %52

50:                                               ; preds = %44
  %51 = load i32, ptr %6, align 4, !tbaa !11
  store i32 %51, ptr %3, align 4
  store i32 1, ptr %9, align 4
  br label %56

52:                                               ; preds = %44
  br label %53

53:                                               ; preds = %52
  br label %54

54:                                               ; preds = %53
  %55 = load i32, ptr %11, align 4, !tbaa !11
  store i32 %55, ptr %10, align 4, !tbaa !11
  store i32 0, ptr %9, align 4
  br label %56

56:                                               ; preds = %54, %50
  call void @llvm.lifetime.end.p0(i64 4, ptr %11) #11
  %57 = load i32, ptr %9, align 4
  switch i32 %57, label %61 [
    i32 0, label %58
  ]

58:                                               ; preds = %56
  br label %59

59:                                               ; preds = %58
  br label %60

60:                                               ; preds = %59
  store i32 0, ptr %9, align 4
  br label %61

61:                                               ; preds = %60, %56
  call void @llvm.lifetime.end.p0(i64 4, ptr %10) #11
  %62 = load i32, ptr %9, align 4
  switch i32 %62, label %67 [
    i32 0, label %63
  ]

63:                                               ; preds = %61
  br label %64

64:                                               ; preds = %63
  br label %65

65:                                               ; preds = %64
  br label %36, !llvm.loop !1359

66:                                               ; preds = %36
  store i32 0, ptr %3, align 4
  store i32 1, ptr %9, align 4
  br label %67

67:                                               ; preds = %66, %61, %31
  call void @llvm.lifetime.end.p0(i64 4, ptr %6) #11
  %68 = load i32, ptr %3, align 4
  ret i32 %68
}

; Function Attrs: nounwind uwtable
define internal i32 @cbs_h266_read_ph(ptr noundef %0, ptr noundef %1, ptr noundef %2) #0 {
  %4 = alloca i32, align 4
  %5 = alloca ptr, align 8
  %6 = alloca ptr, align 8
  %7 = alloca ptr, align 8
  %8 = alloca i32, align 4
  %9 = alloca i32, align 4
  store ptr %0, ptr %5, align 8, !tbaa !4
  store ptr %1, ptr %6, align 8, !tbaa !196
  store ptr %2, ptr %7, align 8, !tbaa !136
  call void @llvm.lifetime.start.p0(i64 4, ptr %8) #11
  br label %10

10:                                               ; preds = %3
  %11 = load ptr, ptr %5, align 8, !tbaa !4
  call void @ff_cbs_trace_header(ptr noundef %11, ptr noundef @.str.1046)
  br label %12

12:                                               ; preds = %10
  br label %13

13:                                               ; preds = %12
  br label %14

14:                                               ; preds = %13
  %15 = load ptr, ptr %5, align 8, !tbaa !4
  %16 = load ptr, ptr %6, align 8, !tbaa !196
  %17 = load ptr, ptr %7, align 8, !tbaa !136
  %18 = getelementptr inbounds nuw %struct.H266RawPH, ptr %17, i32 0, i32 0
  %19 = call i32 @cbs_h266_read_nal_unit_header(ptr noundef %15, ptr noundef %16, ptr noundef %18, i32 noundef 19)
  store i32 %19, ptr %8, align 4, !tbaa !11
  %20 = load i32, ptr %8, align 4, !tbaa !11
  %21 = icmp slt i32 %20, 0
  br i1 %21, label %22, label %24

22:                                               ; preds = %14
  %23 = load i32, ptr %8, align 4, !tbaa !11
  store i32 %23, ptr %4, align 4
  store i32 1, ptr %9, align 4
  br label %51

24:                                               ; preds = %14
  br label %25

25:                                               ; preds = %24
  br label %26

26:                                               ; preds = %25
  br label %27

27:                                               ; preds = %26
  %28 = load ptr, ptr %5, align 8, !tbaa !4
  %29 = load ptr, ptr %6, align 8, !tbaa !196
  %30 = load ptr, ptr %7, align 8, !tbaa !136
  %31 = getelementptr inbounds nuw %struct.H266RawPH, ptr %30, i32 0, i32 1
  %32 = call i32 @cbs_h266_read_picture_header(ptr noundef %28, ptr noundef %29, ptr noundef %31)
  store i32 %32, ptr %8, align 4, !tbaa !11
  %33 = load i32, ptr %8, align 4, !tbaa !11
  %34 = icmp slt i32 %33, 0
  br i1 %34, label %35, label %37

35:                                               ; preds = %27
  %36 = load i32, ptr %8, align 4, !tbaa !11
  store i32 %36, ptr %4, align 4
  store i32 1, ptr %9, align 4
  br label %51

37:                                               ; preds = %27
  br label %38

38:                                               ; preds = %37
  br label %39

39:                                               ; preds = %38
  br label %40

40:                                               ; preds = %39
  %41 = load ptr, ptr %5, align 8, !tbaa !4
  %42 = load ptr, ptr %6, align 8, !tbaa !196
  %43 = call i32 @cbs_h266_read_rbsp_trailing_bits(ptr noundef %41, ptr noundef %42)
  store i32 %43, ptr %8, align 4, !tbaa !11
  %44 = load i32, ptr %8, align 4, !tbaa !11
  %45 = icmp slt i32 %44, 0
  br i1 %45, label %46, label %48

46:                                               ; preds = %40
  %47 = load i32, ptr %8, align 4, !tbaa !11
  store i32 %47, ptr %4, align 4
  store i32 1, ptr %9, align 4
  br label %51

48:                                               ; preds = %40
  br label %49

49:                                               ; preds = %48
  br label %50

50:                                               ; preds = %49
  store i32 0, ptr %4, align 4
  store i32 1, ptr %9, align 4
  br label %51

51:                                               ; preds = %50, %46, %35, %22
  call void @llvm.lifetime.end.p0(i64 4, ptr %8) #11
  %52 = load i32, ptr %4, align 4
  ret i32 %52
}