; Function Attrs: nounwind uwtable
define internal fastcc range(i32 -2147483648, 1) i32 @cbs_h266_read_ph(ptr noundef %0, ptr noundef nonnull %1, ptr noundef %2) unnamed_addr #0 {
  %4 = alloca i32, align 4
  %5 = alloca i32, align 4
  tail call void @ff_cbs_trace_header(ptr noundef %0, ptr noundef nonnull @.str.1046) #11
  %6 = tail call fastcc i32 @cbs_h266_read_nal_unit_header(ptr noundef %0, ptr noundef %1, ptr noundef %2, i32 noundef 19)
  %7 = icmp slt i32 %6, 0
  br i1 %7, label %cbs_h266_read_rbsp_trailing_bits.exit, label %8

8:                                                ; preds = %3
  %9 = getelementptr inbounds nuw i8, ptr %2, i64 4
  %10 = tail call fastcc i32 @cbs_h266_read_picture_header(ptr noundef %0, ptr noundef %1, ptr noundef nonnull %9)
  %11 = icmp slt i32 %10, 0
  br i1 %11, label %cbs_h266_read_rbsp_trailing_bits.exit, label %12

12:                                               ; preds = %8
  call void @llvm.lifetime.start.p0(i64 4, ptr nonnull %4) #11
  %13 = call i32 @ff_cbs_read_unsigned(ptr noundef %0, ptr noundef nonnull %1, i32 noundef 1, ptr noundef nonnull @.str.112, ptr noundef null, ptr noundef nonnull %4, i32 noundef 1, i32 noundef 1) #11
  %14 = icmp sgt i32 %13, -1
  call void @llvm.lifetime.end.p0(i64 4, ptr nonnull %4) #11
  br i1 %14, label %.preheader.i, label %cbs_h266_read_rbsp_trailing_bits.exit

.preheader.i:                                     ; preds = %12
  %15 = getelementptr i8, ptr %1, i64 16
  br label %16

16:                                               ; preds = %18, %.preheader.i
  %.val.i = load i32, ptr %15, align 8, !tbaa !60
  %17 = and i32 %.val.i, 7
  %.not.i = icmp eq i32 %17, 0
  br i1 %.not.i, label %cbs_h266_read_rbsp_trailing_bits.exit, label %18

18:                                               ; preds = %16
  call void @llvm.lifetime.start.p0(i64 4, ptr nonnull %5) #11
  %19 = call i32 @ff_cbs_read_unsigned(ptr noundef %0, ptr noundef nonnull %1, i32 noundef 1, ptr noundef nonnull @.str.113, ptr noundef null, ptr noundef nonnull %5, i32 noundef 0, i32 noundef 0) #11
  %20 = icmp sgt i32 %19, -1
  call void @llvm.lifetime.end.p0(i64 4, ptr nonnull %5) #11
  br i1 %20, label %16, label %cbs_h266_read_rbsp_trailing_bits.exit, !llvm.loop !484

cbs_h266_read_rbsp_trailing_bits.exit:            ; preds = %16, %18, %12, %8, %3
  %.0 = phi i32 [ %6, %3 ], [ %10, %8 ], [ %13, %12 ], [ %19, %18 ], [ 0, %16 ]
  ret i32 %.0
}